Certificate:
    Data:
        Version: 1 (0x0)
        Serial Number: 7 (0x7)
    Signature Algorithm: sha1WithRSAEncryption
        Issuer: O=Arctic Wolf Networks Inc., OU=Cloud/emailAddress=peter@arcticwolf.com, L=Kitchener, ST=Ontario, C=CA, CN=Peter McAlpine
        Validity
            Not Before: Dec 18 15:26:19 2012 GMT
            Not After : Nov 24 15:26:19 2112 GMT
        Subject: C=CA, ST=Ontario, O=Arctic Wolf Networks Inc., OU=Cloud, CN=chefclient.cloud.arcticwolf.biz
        Subject Public Key Info:
            Public Key Algorithm: rsaEncryption
                Public-Key: (2048 bit)
                Modulus:
                    00:cf:99:cf:f7:88:da:32:b2:a9:a8:3e:e2:e4:5e:
                    30:e6:cb:0f:0b:7a:fd:e5:11:55:8b:b4:52:a8:61:
                    0e:6d:eb:62:80:d2:b2:ed:05:f6:5b:ab:5d:5a:06:
                    f4:71:51:30:e0:40:2b:40:1f:a4:c7:91:c9:52:72:
                    55:3d:2b:0c:ef:5f:4e:a6:9b:45:15:29:71:54:da:
                    7d:84:a0:56:52:e5:93:e1:a3:19:95:81:77:2f:09:
                    0e:3d:d8:fb:18:49:39:94:ec:bf:e8:ff:b3:08:3a:
                    64:f8:6e:e7:c6:e3:56:d3:93:45:5c:8a:1e:3b:e0:
                    a6:5b:23:08:e8:a2:77:4e:55:17:0c:0f:44:7b:5f:
                    5f:11:2a:f8:0e:9e:b0:40:d1:7e:26:8d:15:63:d0:
                    8d:84:ea:94:9a:3d:86:6c:8c:98:a1:a3:ff:01:d7:
                    ff:4f:ff:dd:9f:de:89:44:c5:d4:bb:bd:13:d9:da:
                    09:43:8c:83:2a:0a:e1:3d:12:36:4d:0d:41:83:be:
                    ff:1b:1a:3b:9f:ed:1f:0f:d7:58:86:34:f7:fd:f0:
                    4a:5f:d7:1c:7d:23:7d:e6:65:e8:67:1c:bc:a5:50:
                    18:f7:6b:04:74:03:bc:30:9d:0b:2a:65:ee:a0:40:
                    55:a4:c9:6d:48:b7:8f:64:60:37:e4:29:e1:be:66:
                    9c:cf
                Exponent: 65537 (0x10001)
    Signature Algorithm: sha1WithRSAEncryption
         37:09:20:cd:ba:63:ba:b1:f9:fc:56:6d:40:5c:96:4d:fb:88:
         e5:14:fe:5a:ad:ac:28:7b:bb:25:80:34:61:f1:13:54:d5:c0:
         8d:08:a9:1a:3b:b0:2e:ad:4c:51:02:61:6e:39:ed:c0:f4:dd:
         c0:75:a7:ee:1a:cc:8a:ac:3b:b8:68:91:c6:65:4d:18:de:d2:
         f4:83:2b:53:48:bb:17:04:a2:8e:36:c8:f6:71:20:47:3f:5c:
         03:e0:1a:b7:d4:09:c3:68:56:6b:b0:69:97:65:32:95:af:de:
         b0:87:02:bf:3d:30:5a:ba:e7:d6:2f:a9:64:84:d5:ed:5a:5c:
         d1:a1
-----BEGIN CERTIFICATE-----
MIIDGDCCAoECAQcwDQYJKoZIhvcNAQEFBQAwgaUxIjAgBgNVBAoTGUFyY3RpYyBX
b2xmIE5ldHdvcmtzIEluYy4xDjAMBgNVBAsTBUNsb3VkMSMwIQYJKoZIhvcNAQkB
FhRwZXRlckBhcmN0aWN3b2xmLmNvbTESMBAGA1UEBxMJS2l0Y2hlbmVyMRAwDgYD
VQQIEwdPbnRhcmlvMQswCQYDVQQGEwJDQTEXMBUGA1UEAxMOUGV0ZXIgTWNBbHBp
bmUwIBcNMTIxMjE4MTUyNjE5WhgPMjExMjExMjQxNTI2MTlaMH0xCzAJBgNVBAYT
AkNBMRAwDgYDVQQIEwdPbnRhcmlvMSIwIAYDVQQKExlBcmN0aWMgV29sZiBOZXR3
b3JrcyBJbmMuMQ4wDAYDVQQLEwVDbG91ZDEoMCYGA1UEAxMfY2hlZmNsaWVudC5j
bG91ZC5hcmN0aWN3b2xmLmJpejCCASIwDQYJKoZIhvcNAQEBBQADggEPADCCAQoC
ggEBAM+Zz/eI2jKyqag+4uReMObLDwt6/eURVYu0UqhhDm3rYoDSsu0F9lurXVoG
9HFRMOBAK0AfpMeRyVJyVT0rDO9fTqabRRUpcVTafYSgVlLlk+GjGZWBdy8JDj3Y
+xhJOZTsv+j/swg6ZPhu58bjVtOTRVyKHjvgplsjCOiid05VFwwPRHtfXxEq+A6e
sEDRfiaNFWPQjYTqlJo9hmyMmKGj/wHX/0//3Z/eiUTF1Lu9E9naCUOMgyoK4T0S
Nk0NQYO+/xsaO5/tHw/XWIY09/3wSl/XHH0jfeZl6GccvKVQGPdrBHQDvDCdCypl
7qBAVaTJbUi3j2RgN+Qp4b5mnM8CAwEAATANBgkqhkiG9w0BAQUFAAOBgQA3CSDN
umO6sfn8Vm1AXJZN+4jlFP5arawoe7slgDRh8RNU1cCNCKkaO7AurUxRAmFuOe3A
9N3AdafuGsyKrDu4aJHGZU0Y3tL0gytTSLsXBKKONsj2cSBHP1wD4Bq31AnDaFZr
sGmXZTKVr96whwK/PTBauufWL6lkhNXtWlzRoQ==
-----END CERTIFICATE-----
