Certificate:
    Data:
        Version: 1 (0x0)
        Serial Number: 2 (0x2)
    Signature Algorithm: md5WithRSAEncryption
        Issuer: O=Arctic Wolf Networks Inc., OU=Cloud/emailAddress=peter@arcticwolf.com, L=Kitchener, ST=Ontario, C=CA, CN=Peter McAlpine
        Validity
            Not Before: Dec  4 21:48:12 2012 GMT
            Not After : Nov 10 21:48:12 2112 GMT
        Subject: C=CA, ST=Ontario, O=Arctic Wolf Networks Inc., OU=Cloud, CN=Packaging Client
        Subject Public Key Info:
            Public Key Algorithm: rsaEncryption
                Public-Key: (1024 bit)
                Modulus:
                    00:be:92:de:6c:4c:41:18:d6:6d:62:44:4c:e0:a0:
                    76:c5:9a:29:7b:a5:b5:60:d2:79:10:bb:4b:02:f1:
                    b8:2f:7c:16:25:c0:e7:7d:a8:57:de:83:ec:b5:24:
                    a6:74:bc:93:68:2b:07:30:10:66:5d:a5:69:89:62:
                    56:4f:7e:ef:05:c1:02:1a:ff:20:84:5c:1c:b1:7f:
                    59:d5:f2:68:c9:92:97:c7:bd:76:c2:d9:42:99:a1:
                    c2:91:24:e1:69:e9:81:11:e8:8f:ea:ff:68:80:2a:
                    44:65:7a:62:2b:1e:e1:b6:c9:79:8e:53:96:a2:b1:
                    41:36:cb:5e:be:59:b3:2b:57
                Exponent: 65537 (0x10001)
    Signature Algorithm: md5WithRSAEncryption
         a4:89:00:da:26:58:f3:65:dc:19:54:0d:66:9b:f8:d1:e6:cc:
         bb:ae:9f:d6:4f:94:3a:38:79:bc:70:4e:52:23:76:47:76:bf:
         35:61:d8:43:63:b3:26:f3:07:6b:ad:51:9a:e4:88:2e:11:02:
         40:2d:6c:50:a2:1a:18:50:bc:7f:22:40:44:0f:82:ff:f3:33:
         bb:ce:40:f5:72:d7:d7:18:13:b7:af:5f:25:04:0b:e7:43:05:
         de:4d:e4:ee:99:d9:b3:54:88:fa:fb:d6:e4:01:86:d3:c0:e6:
         15:e9:dd:4d:c8:18:66:4e:3c:e1:fa:13:70:77:46:0b:11:d2:
         0a:31
-----BEGIN CERTIFICATE-----
MIIChTCCAe4CAQIwDQYJKoZIhvcNAQEEBQAwgaUxIjAgBgNVBAoTGUFyY3RpYyBX
b2xmIE5ldHdvcmtzIEluYy4xDjAMBgNVBAsTBUNsb3VkMSMwIQYJKoZIhvcNAQkB
FhRwZXRlckBhcmN0aWN3b2xmLmNvbTESMBAGA1UEBxMJS2l0Y2hlbmVyMRAwDgYD
VQQIEwdPbnRhcmlvMQswCQYDVQQGEwJDQTEXMBUGA1UEAxMOUGV0ZXIgTWNBbHBp
bmUwIBcNMTIxMjA0MjE0ODEyWhgPMjExMjExMTAyMTQ4MTJaMG4xCzAJBgNVBAYT
AkNBMRAwDgYDVQQIEwdPbnRhcmlvMSIwIAYDVQQKExlBcmN0aWMgV29sZiBOZXR3
b3JrcyBJbmMuMQ4wDAYDVQQLEwVDbG91ZDEZMBcGA1UEAxMQUGFja2FnaW5nIENs
aWVudDCBnzANBgkqhkiG9w0BAQEFAAOBjQAwgYkCgYEAvpLebExBGNZtYkRM4KB2
xZope6W1YNJ5ELtLAvG4L3wWJcDnfahX3oPstSSmdLyTaCsHMBBmXaVpiWJWT37v
BcECGv8ghFwcsX9Z1fJoyZKXx712wtlCmaHCkSThaemBEeiP6v9ogCpEZXpiKx7h
tsl5jlOWorFBNstevlmzK1cCAwEAATANBgkqhkiG9w0BAQQFAAOBgQCkiQDaJljz
ZdwZVA1mm/jR5sy7rp/WT5Q6OHm8cE5SI3ZHdr81YdhDY7Mm8wdrrVGa5IguEQJA
LWxQohoYULx/IkBED4L/8zO7zkD1ctfXGBO3r18lBAvnQwXeTeTumdmzVIj6+9bk
AYbTwOYV6d1NyBhmTjzh+hNwd0YLEdIKMQ==
-----END CERTIFICATE-----
